; Function Attrs: null_pointer_is_valid sspstrong uwtable
define internal fastcc void @dissect_u3v_read_mem_cmd(ptr noundef %0, ptr noundef %1, ptr noundef readonly captures(none) %2, i32 noundef range(i32 0, 65536) %3, ptr noundef captures(address_is_null) %4, ptr noundef writeonly captures(none) initializes((32, 44)) %5) unnamed_addr #0 {
  %7 = alloca i8, align 1
  call void @llvm.lifetime.start.p0(i64 1, ptr nonnull %7) #7
  store i8 0, ptr %7, align 1
  %8 = tail call i64 @tvb_get_letoh64(ptr noundef %1, i32 noundef 12)
  %9 = getelementptr inbounds nuw i8, ptr %5, i64 32
  store i64 %8, ptr %9, align 8
  %10 = call fastcc ptr @get_register_name_from_address(i64 noundef %8, ptr noundef nonnull %7, ptr noundef %4)
  %11 = call zeroext i16 @tvb_get_letohs(ptr noundef %1, i32 noundef 22)
  %12 = zext i16 %11 to i32
  %13 = getelementptr inbounds nuw i8, ptr %5, i64 40
  store i32 %12, ptr %13, align 8
  %.not = icmp ult i64 %8, 4294967296
  %14 = getelementptr inbounds nuw i8, ptr %2, i64 8
  %15 = load ptr, ptr %14, align 8
  br i1 %.not, label %17, label %16

16:                                               ; preds = %6
  call void (ptr, i32, ptr, ...) @col_append_fstr(ptr noundef %15, i32 noundef 25, ptr noundef nonnull @.str.628, i64 noundef %8, i32 noundef %12, ptr noundef %10)
  br label %19

17:                                               ; preds = %6
  %18 = trunc nuw i64 %8 to i32
  call void (ptr, i32, ptr, ...) @col_append_fstr(ptr noundef %15, i32 noundef 25, ptr noundef nonnull @.str.629, i32 noundef %18, i32 noundef %12)
  br label %19

19:                                               ; preds = %17, %16
  %20 = load i32, ptr @hf_u3v_scd_readmem_cmd, align 4
  %21 = call ptr @proto_tree_add_item(ptr noundef %0, i32 noundef %20, ptr noundef %1, i32 noundef 12, i32 noundef %3, i32 noundef 0)
  %22 = load i32, ptr @ett_u3v_payload_cmd, align 4
  %23 = call ptr @proto_item_add_subtree(ptr noundef %21, i32 noundef %22)
  %24 = icmp ult i64 %8, 65536
  br i1 %24, label %25, label %28

25:                                               ; preds = %19
  %26 = trunc nuw nsw i64 %8 to i32
  %27 = call ptr @try_val_to_str(i32 noundef %26, ptr noundef nonnull @bootstrap_register_names_abrm)
  br label %28

28:                                               ; preds = %25, %19
  %.0.i = phi ptr [ %27, %25 ], [ null, %19 ]
  %29 = getelementptr inbounds nuw i8, ptr %4, i64 8
  %30 = load i64, ptr %29, align 8
  %31 = add i64 %30, -1
  %or.cond.not.i = icmp ult i64 %31, %8
  br i1 %or.cond.not.i, label %32, label %36

32:                                               ; preds = %28
  %33 = sub nuw i64 %8, %30
  %34 = trunc i64 %33 to i32
  %35 = call ptr @try_val_to_str(i32 noundef %34, ptr noundef nonnull @bootstrap_register_names_sbrm)
  br label %36

36:                                               ; preds = %32, %28
  %.1.i = phi ptr [ %35, %32 ], [ %.0.i, %28 ]
  %37 = getelementptr inbounds nuw i8, ptr %4, i64 16
  %38 = load i64, ptr %37, align 8
  %39 = add i64 %38, -1
  %or.cond33.not.i = icmp ult i64 %39, %8
  br i1 %or.cond33.not.i, label %40, label %44

40:                                               ; preds = %36
  %41 = sub nuw i64 %8, %38
  %42 = trunc i64 %41 to i32
  %43 = call ptr @try_val_to_str(i32 noundef %42, ptr noundef nonnull @bootstrap_register_names_sirm)
  br label %44

44:                                               ; preds = %40, %36
  %.2.i = phi ptr [ %43, %40 ], [ %.1.i, %36 ]
  %45 = getelementptr inbounds nuw i8, ptr %4, i64 24
  %46 = load i64, ptr %45, align 8
  %47 = add i64 %46, -1
  %or.cond34.not.i = icmp ult i64 %47, %8
  br i1 %or.cond34.not.i, label %48, label %is_known_bootstrap_register.exit

48:                                               ; preds = %44
  %49 = sub nuw i64 %8, %46
  %50 = trunc i64 %49 to i32
  %51 = call ptr @try_val_to_str(i32 noundef %50, ptr noundef nonnull @bootstrap_register_names_eirm)
  br label %is_known_bootstrap_register.exit

is_known_bootstrap_register.exit:                 ; preds = %44, %48
  %.3.i = phi ptr [ %51, %48 ], [ %.2.i, %44 ]
  %.not43 = icmp eq ptr %.3.i, null
  br i1 %.not43, label %55, label %52

52:                                               ; preds = %is_known_bootstrap_register.exit
  %53 = load i32, ptr @hf_u3v_address, align 4
  %54 = call ptr @proto_tree_add_uint64(ptr noundef %23, i32 noundef %53, ptr noundef %1, i32 noundef 12, i32 noundef 8, i64 noundef %8)
  call void (ptr, ptr, ...) @proto_item_append_text(ptr noundef %54, ptr noundef nonnull @.str.630, ptr noundef %10)
  br label %58

55:                                               ; preds = %is_known_bootstrap_register.exit
  %56 = load i32, ptr @hf_u3v_custom_memory_addr, align 4
  %57 = call ptr @proto_tree_add_item(ptr noundef %23, i32 noundef %56, ptr noundef %1, i32 noundef 12, i32 noundef 8, i32 noundef -2147483648)
  br label %58

58:                                               ; preds = %55, %52
  %59 = load i32, ptr @hf_u3v_reserved, align 4
  %60 = call ptr @proto_tree_add_item(ptr noundef %23, i32 noundef %59, ptr noundef %1, i32 noundef 20, i32 noundef 2, i32 noundef 0)
  %61 = load i32, ptr @hf_u3v_count, align 4
  %62 = call ptr @proto_tree_add_item(ptr noundef %23, i32 noundef %61, ptr noundef %1, i32 noundef 22, i32 noundef 2, i32 noundef -2147483648)
  call void @llvm.lifetime.end.p0(i64 1, ptr nonnull %7) #7
  ret void
}